target datalayout = "e-m:e-p270:32:32-p271:32:32-p272:64:64-i64:64-i128:128-f80:128-n8:16:32:64-S128"
target triple = "x86_64-pc-linux-gnu"

%"class.std::__cxx11::basic_string" = type { %"struct.std::__cxx11::basic_string<char>::_Alloc_hider", i64, %union.anon }
%"struct.std::__cxx11::basic_string<char>::_Alloc_hider" = type { ptr }
%union.anon = type { i64, [8 x i8] }

; Function Attrs: mustprogress uwtable
define dso_local void @_ZNK4Luau16TestFileResolver26getHumanReadableModuleNameERKNSt7__cxx1112basic_stringIcSt11char_traitsIcESaIcEEE(ptr dead_on_unwind noalias writable sret(%"class.std::__cxx11::basic_string") align 8 %0, ptr noundef nonnull align 8 dereferenceable(184) %1, ptr noundef nonnull align 8 dereferenceable(32) %2) unnamed_addr #6 align 2 personality ptr @__gxx_personality_v0 {
  %4 = alloca ptr, align 8
  %5 = alloca ptr, align 8
  %6 = alloca ptr, align 8
  %7 = alloca i1, align 1
  %8 = alloca i64, align 8
  %9 = alloca ptr, align 8
  %10 = alloca i32, align 4
  store ptr %0, ptr %4, align 8
  store ptr %1, ptr %5, align 8
  store ptr %2, ptr %6, align 8
  store i1 false, ptr %7, align 1
  %11 = load ptr, ptr %6, align 8
  call void @_ZNSt7__cxx1112basic_stringIcSt11char_traitsIcESaIcEEC1ERKS4_(ptr noundef nonnull align 8 dereferenceable(32) %0, ptr noundef nonnull align 8 dereferenceable(32) %11)
  store i64 0, ptr %8, align 8
  br label %12

12:                                               ; preds = %32, %3
  %13 = load i64, ptr %8, align 8
  %14 = call noundef i64 @_ZNKSt7__cxx1112basic_stringIcSt11char_traitsIcESaIcEE4sizeEv(ptr noundef nonnull align 8 dereferenceable(32) %0) #2
  %15 = icmp ult i64 %13, %14
  br i1 %15, label %16, label %35

16:                                               ; preds = %12
  %17 = load i64, ptr %8, align 8
  %18 = invoke noundef nonnull align 1 dereferenceable(1) ptr @_ZNSt7__cxx1112basic_stringIcSt11char_traitsIcESaIcEEixEm(ptr noundef nonnull align 8 dereferenceable(32) %0, i64 noundef %17)
          to label %19 unwind label %27

19:                                               ; preds = %16
  %20 = load i8, ptr %18, align 1
  %21 = sext i8 %20 to i32
  %22 = icmp eq i32 %21, 47
  br i1 %22, label %23, label %31

23:                                               ; preds = %19
  %24 = load i64, ptr %8, align 8
  %25 = invoke noundef nonnull align 1 dereferenceable(1) ptr @_ZNSt7__cxx1112basic_stringIcSt11char_traitsIcESaIcEEixEm(ptr noundef nonnull align 8 dereferenceable(32) %0, i64 noundef %24)
          to label %26 unwind label %27

26:                                               ; preds = %23
  store i8 46, ptr %25, align 1
  br label %31

27:                                               ; preds = %23, %16
  %28 = landingpad { ptr, i32 }
          cleanup
  %29 = extractvalue { ptr, i32 } %28, 0
  store ptr %29, ptr %9, align 8
  %30 = extractvalue { ptr, i32 } %28, 1
  store i32 %30, ptr %10, align 4
  call void @_ZNSt7__cxx1112basic_stringIcSt11char_traitsIcESaIcEED1Ev(ptr noundef nonnull align 8 dereferenceable(32) %0) #2
  br label %39

31:                                               ; preds = %26, %19
  br label %32

32:                                               ; preds = %31
  %33 = load i64, ptr %8, align 8
  %34 = add i64 %33, 1
  store i64 %34, ptr %8, align 8
  br label %12, !llvm.loop !5

35:                                               ; preds = %12
  store i1 true, ptr %7, align 1
  %36 = load i1, ptr %7, align 1
  br i1 %36, label %38, label %37

37:                                               ; preds = %35
  call void @_ZNSt7__cxx1112basic_stringIcSt11char_traitsIcESaIcEED1Ev(ptr noundef nonnull align 8 dereferenceable(32) %0) #2
  br label %38

38:                                               ; preds = %37, %35
  ret void

39:                                               ; preds = %27
  %40 = load ptr, ptr %9, align 8
  %41 = load i32, ptr %10, align 4
  %42 = insertvalue { ptr, i32 } poison, ptr %40, 0
  %43 = insertvalue { ptr, i32 } %42, i32 %41, 1
  resume { ptr, i32 } %43
}

; Function Attrs: uwtable
define dso_local void @_ZThn8_NK4Luau16TestFileResolver26getHumanReadableModuleNameERKNSt7__cxx1112basic_stringIcSt11char_traitsIcESaIcEEE(ptr dead_on_unwind noalias writable sret(%"class.std::__cxx11::basic_string") align 8 %0, ptr noundef %1, ptr noundef nonnull align 8 dereferenceable(32) %2) unnamed_addr #0 align 2 {
  %4 = alloca ptr, align 8
  %5 = alloca ptr, align 8
  %6 = alloca ptr, align 8
  store ptr %0, ptr %4, align 8
  store ptr %1, ptr %5, align 8
  store ptr %2, ptr %6, align 8
  %7 = load ptr, ptr %5, align 8
  %8 = getelementptr inbounds i8, ptr %7, i64 -8
  %9 = load ptr, ptr %6, align 8
  tail call void @_ZNK4Luau16TestFileResolver26getHumanReadableModuleNameERKNSt7__cxx1112basic_stringIcSt11char_traitsIcESaIcEEE(ptr dead_on_unwind writable sret(%"class.std::__cxx11::basic_string") align 8 %0, ptr noundef nonnull align 8 dereferenceable(184) %8, ptr noundef nonnull align 8 dereferenceable(32) %9)
  ret void
}