; Function Attrs: uwtable
define dso_local void @_ZThn8_NK4Luau16TestFileResolver26getHumanReadableModuleNameERKNSt7__cxx1112basic_stringIcSt11char_traitsIcESaIcEEE(ptr dead_on_unwind noalias nonnull writable sret(%"class.std::__cxx11::basic_string") align 8 %0, ptr readnone captures(none) %1, ptr noundef nonnull align 8 dereferenceable(32) %2) unnamed_addr #7 align 2 personality ptr @__gxx_personality_v0 {
  tail call void @_ZNSt7__cxx1112basic_stringIcSt11char_traitsIcESaIcEEC1ERKS4_(ptr noundef nonnull align 8 dereferenceable(32) %0, ptr noundef nonnull align 8 dereferenceable(32) %2)
  %4 = tail call noundef i64 @_ZNKSt7__cxx1112basic_stringIcSt11char_traitsIcESaIcEE4sizeEv(ptr noundef nonnull align 8 dereferenceable(32) %0) #27
  %.not.i = icmp eq i64 %4, 0
  br i1 %.not.i, label %_ZNK4Luau16TestFileResolver26getHumanReadableModuleNameERKNSt7__cxx1112basic_stringIcSt11char_traitsIcESaIcEEE.exit, label %.lr.ph.i

.lr.ph.i:                                         ; preds = %3, %14
  %.07.i = phi i64 [ %15, %14 ], [ 0, %3 ]
  %5 = invoke noundef nonnull align 1 dereferenceable(1) ptr @_ZNSt7__cxx1112basic_stringIcSt11char_traitsIcESaIcEEixEm(ptr noundef nonnull align 8 dereferenceable(32) %0, i64 noundef %.07.i)
          to label %6 unwind label %12

6:                                                ; preds = %.lr.ph.i
  %7 = load i8, ptr %5, align 1
  %8 = icmp eq i8 %7, 47
  br i1 %8, label %9, label %14

9:                                                ; preds = %6
  %10 = invoke noundef nonnull align 1 dereferenceable(1) ptr @_ZNSt7__cxx1112basic_stringIcSt11char_traitsIcESaIcEEixEm(ptr noundef nonnull align 8 dereferenceable(32) %0, i64 noundef %.07.i)
          to label %11 unwind label %12

11:                                               ; preds = %9
  store i8 46, ptr %10, align 1
  br label %14

12:                                               ; preds = %9, %.lr.ph.i
  %13 = landingpad { ptr, i32 }
          cleanup
  tail call void @_ZNSt7__cxx1112basic_stringIcSt11char_traitsIcESaIcEED1Ev(ptr noundef nonnull align 8 dereferenceable(32) %0) #27
  resume { ptr, i32 } %13

14:                                               ; preds = %11, %6
  %15 = add nuw i64 %.07.i, 1
  %16 = tail call noundef i64 @_ZNKSt7__cxx1112basic_stringIcSt11char_traitsIcESaIcEE4sizeEv(ptr noundef nonnull align 8 dereferenceable(32) %0) #27
  %17 = icmp ult i64 %15, %16
  br i1 %17, label %.lr.ph.i, label %_ZNK4Luau16TestFileResolver26getHumanReadableModuleNameERKNSt7__cxx1112basic_stringIcSt11char_traitsIcESaIcEEE.exit, !llvm.loop !14

_ZNK4Luau16TestFileResolver26getHumanReadableModuleNameERKNSt7__cxx1112basic_stringIcSt11char_traitsIcESaIcEEE.exit: ; preds = %14, %3
  ret void
}